target datalayout = "e-m:e-p270:32:32-p271:32:32-p272:64:64-i64:64-i128:128-f80:128-n8:16:32:64-S128"
target triple = "x86_64-unknown-linux-gnu"

%"struct.re2::PatchList" = type { i32, i32 }
%"class.re2::Compiler" = type <{ %"class.re2::Regexp::Walker", ptr, i8, [3 x i8], i32, i8, [7 x i8], %"class.re2::PODArray", i32, i32, i64, %"class.absl::debian2::flat_hash_map", %"struct.re2::Frag", i32, [4 x i8] }>
%"class.re2::Regexp::Walker" = type { ptr, %"class.std::stack", i8, i32 }
%"class.std::stack" = type { %"class.std::deque" }
%"class.std::deque" = type { %"class.std::_Deque_base" }
%"class.std::_Deque_base" = type { %"struct.std::_Deque_base<re2::WalkState<re2::Frag>, std::allocator<re2::WalkState<re2::Frag>>>::_Deque_impl" }
%"struct.std::_Deque_base<re2::WalkState<re2::Frag>, std::allocator<re2::WalkState<re2::Frag>>>::_Deque_impl" = type { %"struct.std::_Deque_base<re2::WalkState<re2::Frag>, std::allocator<re2::WalkState<re2::Frag>>>::_Deque_impl_data" }
%"struct.std::_Deque_base<re2::WalkState<re2::Frag>, std::allocator<re2::WalkState<re2::Frag>>>::_Deque_impl_data" = type { ptr, i64, %"struct.std::_Deque_iterator", %"struct.std::_Deque_iterator" }
%"struct.std::_Deque_iterator" = type { ptr, ptr, ptr, ptr }
%"class.re2::PODArray" = type { %"class.std::unique_ptr" }
%"class.std::unique_ptr" = type { %"struct.std::__uniq_ptr_data" }
%"struct.std::__uniq_ptr_data" = type { %"class.std::__uniq_ptr_impl" }
%"class.std::__uniq_ptr_impl" = type { %"class.std::tuple" }
%"class.std::tuple" = type { %"struct.std::_Tuple_impl" }
%"struct.std::_Tuple_impl" = type { %"struct.std::_Tuple_impl.0", %"struct.std::_Head_base.1" }
%"struct.std::_Tuple_impl.0" = type { %"struct.std::_Head_base" }
%"struct.std::_Head_base" = type { %"struct.re2::PODArray<re2::Prog::Inst>::Deleter" }
%"struct.re2::PODArray<re2::Prog::Inst>::Deleter" = type { i32 }
%"struct.std::_Head_base.1" = type { ptr }
%"class.absl::debian2::flat_hash_map" = type { %"class.absl::debian2::container_internal::raw_hash_map" }
%"class.absl::debian2::container_internal::raw_hash_map" = type { %"class.absl::debian2::container_internal::raw_hash_set" }
%"class.absl::debian2::container_internal::raw_hash_set" = type { ptr, ptr, i64, i64, %"class.absl::debian2::container_internal::CompressedTuple" }
%"class.absl::debian2::container_internal::CompressedTuple" = type { %"struct.absl::debian2::container_internal::internal_compressed_tuple::CompressedTupleImpl" }
%"struct.absl::debian2::container_internal::internal_compressed_tuple::CompressedTupleImpl" = type { %"struct.absl::debian2::container_internal::internal_compressed_tuple::Storage" }
%"struct.absl::debian2::container_internal::internal_compressed_tuple::Storage" = type { i64 }
%"struct.re2::Frag" = type <{ i32, %"struct.re2::PatchList", i8, [3 x i8] }>

; Function Attrs: mustprogress nounwind uwtable
define linkonce_odr noundef i32 @_ZN3re2anENS_6Regexp10ParseFlagsES1_(i32 noundef %a, i32 noundef %b) #1 comdat {
entry:
  %a.addr = alloca i32, align 4
  %b.addr = alloca i32, align 4
  store i32 %a, ptr %a.addr, align 4
  store i32 %b, ptr %b.addr, align 4
  %0 = load i32, ptr %a.addr, align 4
  %1 = load i32, ptr %b.addr, align 4
  %and = and i32 %0, %1
  ret i32 %and
}

; Function Attrs: mustprogress uwtable
define void @_ZN3re28Compiler5SetupENS_6Regexp10ParseFlagsElNS_3RE26AnchorE(ptr noundef nonnull align 8 dereferenceable(212) %this, i32 noundef %flags, i64 noundef %max_mem, i32 noundef %anchor) #0 align 2 {
entry:
  %this.addr = alloca ptr, align 8
  %flags.addr = alloca i32, align 4
  %max_mem.addr = alloca i64, align 8
  %anchor.addr = alloca i32, align 4
  %m = alloca i64, align 8
  store ptr %this, ptr %this.addr, align 8
  store i32 %flags, ptr %flags.addr, align 4
  store i64 %max_mem, ptr %max_mem.addr, align 8
  store i32 %anchor, ptr %anchor.addr, align 4
  %this1 = load ptr, ptr %this.addr, align 8
  %0 = load i32, ptr %flags.addr, align 4
  %call = call noundef i32 @_ZN3re2anENS_6Regexp10ParseFlagsES1_(i32 noundef %0, i32 noundef 32)
  %tobool = icmp ne i32 %call, 0
  br i1 %tobool, label %if.then, label %if.end

if.then:                                          ; preds = %entry
  %encoding_ = getelementptr inbounds %"class.re2::Compiler", ptr %this1, i32 0, i32 4
  store i32 2, ptr %encoding_, align 4
  br label %if.end

if.end:                                           ; preds = %if.then, %entry
  %1 = load i64, ptr %max_mem.addr, align 8
  %max_mem_ = getelementptr inbounds %"class.re2::Compiler", ptr %this1, i32 0, i32 10
  store i64 %1, ptr %max_mem_, align 8
  %2 = load i64, ptr %max_mem.addr, align 8
  %cmp = icmp sle i64 %2, 0
  br i1 %cmp, label %if.then2, label %if.else

if.then2:                                         ; preds = %if.end
  %max_ninst_ = getelementptr inbounds %"class.re2::Compiler", ptr %this1, i32 0, i32 9
  store i32 100000, ptr %max_ninst_, align 4
  br label %if.end15

if.else:                                          ; preds = %if.end
  %3 = load i64, ptr %max_mem.addr, align 8
  %cmp3 = icmp ule i64 %3, 432
  br i1 %cmp3, label %if.then4, label %if.else6

if.then4:                                         ; preds = %if.else
  %max_ninst_5 = getelementptr inbounds %"class.re2::Compiler", ptr %this1, i32 0, i32 9
  store i32 0, ptr %max_ninst_5, align 4
  br label %if.end14

if.else6:                                         ; preds = %if.else
  %4 = load i64, ptr %max_mem.addr, align 8
  %sub = sub i64 %4, 432
  %div = udiv i64 %sub, 8
  store i64 %div, ptr %m, align 8
  %5 = load i64, ptr %m, align 8
  %cmp7 = icmp sge i64 %5, 16777216
  br i1 %cmp7, label %if.then8, label %if.end9

if.then8:                                         ; preds = %if.else6
  store i64 16777216, ptr %m, align 8
  br label %if.end9

if.end9:                                          ; preds = %if.then8, %if.else6
  %6 = load i64, ptr %m, align 8
  %cmp10 = icmp sgt i64 %6, 268435455
  br i1 %cmp10, label %if.then11, label %if.end12

if.then11:                                        ; preds = %if.end9
  store i64 268435455, ptr %m, align 8
  br label %if.end12

if.end12:                                         ; preds = %if.then11, %if.end9
  %7 = load i64, ptr %m, align 8
  %conv = trunc i64 %7 to i32
  %max_ninst_13 = getelementptr inbounds %"class.re2::Compiler", ptr %this1, i32 0, i32 9
  store i32 %conv, ptr %max_ninst_13, align 4
  br label %if.end14

if.end14:                                         ; preds = %if.end12, %if.then4
  br label %if.end15

if.end15:                                         ; preds = %if.end14, %if.then2
  %8 = load i32, ptr %anchor.addr, align 4
  %anchor_ = getelementptr inbounds %"class.re2::Compiler", ptr %this1, i32 0, i32 13
  store i32 %8, ptr %anchor_, align 8
  ret void
}