; Function Attrs: mustprogress nofree norecurse nosync nounwind willreturn memory(argmem: write) uwtable
define void @_ZN3re28Compiler5SetupENS_6Regexp10ParseFlagsElNS_3RE26AnchorE(ptr nocapture noundef nonnull writeonly align 8 dereferenceable(212) %this, i32 noundef %flags, i64 noundef %max_mem, i32 noundef %anchor) local_unnamed_addr #14 align 2 {
entry:
  %and.i = and i32 %flags, 32
  %tobool.not = icmp eq i32 %and.i, 0
  br i1 %tobool.not, label %if.end, label %if.then

if.then:                                          ; preds = %entry
  %encoding_ = getelementptr inbounds i8, ptr %this, i64 108
  store i32 2, ptr %encoding_, align 4
  br label %if.end

if.end:                                           ; preds = %if.then, %entry
  %max_mem_ = getelementptr inbounds i8, ptr %this, i64 144
  store i64 %max_mem, ptr %max_mem_, align 8
  %cmp = icmp slt i64 %max_mem, 1
  br i1 %cmp, label %if.end15, label %if.else

if.else:                                          ; preds = %if.end
  %cmp3 = icmp ult i64 %max_mem, 433
  br i1 %cmp3, label %if.end15, label %if.else6

if.else6:                                         ; preds = %if.else
  %sub = add nsw i64 %max_mem, -432
  %div7 = lshr i64 %sub, 3
  %cmp7 = icmp ugt i64 %sub, 134217727
  %0 = trunc i64 %div7 to i32
  %conv = select i1 %cmp7, i32 16777216, i32 %0
  br label %if.end15

if.end15:                                         ; preds = %if.else, %if.end, %if.else6
  %.sink = phi i32 [ %conv, %if.else6 ], [ 100000, %if.end ], [ 0, %if.else ]
  %max_ninst_5 = getelementptr inbounds i8, ptr %this, i64 140
  store i32 %.sink, ptr %max_ninst_5, align 4
  %anchor_ = getelementptr inbounds i8, ptr %this, i64 208
  store i32 %anchor, ptr %anchor_, align 8
  ret void
}